; Function Attrs: mustprogress uwtable
define hidden noundef i32 @_ZN3sat4ddfw5checkEjPKNS_7literalE(ptr noundef nonnull align 8 dereferenceable(434) %0, i32 noundef %1, ptr noundef readonly captures(none) %2) local_unnamed_addr #4 align 2 {
  tail call void @_ZN3sat4ddfw4initEjPKNS_7literalE(ptr noundef nonnull align 8 dereferenceable(434) %0, i32 noundef %1, ptr noundef %2)
  %4 = getelementptr inbounds nuw i8, ptr %0, i64 360
  %5 = load ptr, ptr %4, align 8, !tbaa !14
  %.not = icmp eq ptr %5, null
  br i1 %.not, label %7, label %6

6:                                                ; preds = %3
  tail call void @_ZN3sat4ddfw17check_with_pluginEv(ptr noundef nonnull align 8 dereferenceable(434) %0)
  br label %8

7:                                                ; preds = %3
  tail call void @_ZN3sat4ddfw20check_without_pluginEv(ptr noundef nonnull align 8 dereferenceable(434) %0)
  br label %8

8:                                                ; preds = %7, %6
  %9 = getelementptr inbounds nuw i8, ptr %0, i64 80
  %10 = load ptr, ptr %9, align 8, !tbaa !37
  %11 = icmp eq ptr %10, null
  br i1 %11, label %_ZN3sat4ddfw18remove_assumptionsEv.exit, label %_ZNK6vectorIN3sat7literalELb0EjE5emptyEv.exit.i

_ZNK6vectorIN3sat7literalELb0EjE5emptyEv.exit.i:  ; preds = %8
  %12 = getelementptr inbounds i8, ptr %10, i64 -4
  %13 = load i32, ptr %12, align 4, !tbaa !26
  %14 = icmp eq i32 %13, 0
  br i1 %14, label %_ZN3sat4ddfw18remove_assumptionsEv.exit, label %.preheader.i

.preheader.i:                                     ; preds = %_ZNK6vectorIN3sat7literalELb0EjE5emptyEv.exit.i, %22
  %15 = phi ptr [ %.pre.i, %22 ], [ %10, %_ZNK6vectorIN3sat7literalELb0EjE5emptyEv.exit.i ]
  %.0.i = phi i32 [ %23, %22 ], [ 0, %_ZNK6vectorIN3sat7literalELb0EjE5emptyEv.exit.i ]
  %16 = icmp eq ptr %15, null
  br i1 %16, label %_ZNK6vectorIN3sat7literalELb0EjE4sizeEv.exit.i, label %17

17:                                               ; preds = %.preheader.i
  %18 = getelementptr inbounds i8, ptr %15, i64 -4
  %19 = load i32, ptr %18, align 4, !tbaa !26
  br label %_ZNK6vectorIN3sat7literalELb0EjE4sizeEv.exit.i

_ZNK6vectorIN3sat7literalELb0EjE4sizeEv.exit.i:   ; preds = %17, %.preheader.i
  %.0.i.i = phi i32 [ %19, %17 ], [ 0, %.preheader.i ]
  %20 = icmp ult i32 %.0.i, %.0.i.i
  br i1 %20, label %22, label %21

21:                                               ; preds = %_ZNK6vectorIN3sat7literalELb0EjE4sizeEv.exit.i
  tail call void @_ZN3sat4ddfw4initEjPKNS_7literalE(ptr noundef nonnull align 8 dereferenceable(434) %0, i32 noundef 0, ptr noundef null)
  br label %_ZN3sat4ddfw18remove_assumptionsEv.exit

22:                                               ; preds = %_ZNK6vectorIN3sat7literalELb0EjE4sizeEv.exit.i
  tail call void @_ZN3sat4ddfw3delEv(ptr noundef nonnull align 8 dereferenceable(434) %0)
  %23 = add nuw i32 %.0.i, 1
  %.pre.i = load ptr, ptr %9, align 8, !tbaa !37
  br label %.preheader.i, !llvm.loop !51

_ZN3sat4ddfw18remove_assumptionsEv.exit:          ; preds = %8, %_ZNK6vectorIN3sat7literalELb0EjE5emptyEv.exit.i, %21
  tail call void @_ZN3sat4ddfw3logEv(ptr noundef nonnull align 8 dereferenceable(434) %0)
  %24 = getelementptr inbounds nuw i8, ptr %0, i64 292
  %25 = load i32, ptr %24, align 4, !tbaa !52
  %26 = icmp eq i32 %25, 0
  br i1 %26, label %27, label %33

27:                                               ; preds = %_ZN3sat4ddfw18remove_assumptionsEv.exit
  %28 = getelementptr inbounds nuw i8, ptr %0, i64 32
  %29 = tail call noundef zeroext i1 @_ZN8reslimit3incEv(ptr noundef nonnull align 8 dereferenceable(40) %28)
  br i1 %29, label %30, label %33

30:                                               ; preds = %27
  %31 = getelementptr inbounds nuw i8, ptr %0, i64 160
  %32 = load i32, ptr %31, align 8, !tbaa !80
  br label %33

33:                                               ; preds = %_ZN3sat4ddfw18remove_assumptionsEv.exit, %27, %30
  %34 = phi i32 [ %32, %30 ], [ 0, %27 ], [ 0, %_ZN3sat4ddfw18remove_assumptionsEv.exit ]
  ret i32 %34
}